target datalayout = "e-m:e-p270:32:32-p271:32:32-p272:64:64-i64:64-i128:128-f80:128-n8:16:32:64-S128"
target triple = "x86_64-pc-linux-gnu"

%struct.AVFilterContext = type { ptr, ptr, ptr, ptr, ptr, i32, ptr, ptr, i32, ptr, ptr, i32, i32, ptr, ptr, ptr, ptr, i32, ptr, i32, i32 }
%struct.ColorCorrectContext = type { ptr, float, float, float, float, float, i32, i32, float, float, i32, i32, [4 x i32], [4 x i32], ptr, ptr, ptr, ptr, ptr }
%struct.AVChannelLayout = type { i32, i32, %union.anon.1, ptr }
%union.anon.1 = type { i64 }
%struct.AVRational = type { i32, i32 }
%struct.AVFrame = type { [8 x ptr], [8 x i32], ptr, i32, i32, i32, i32, i32, %struct.AVRational, i64, i64, %struct.AVRational, i32, ptr, i32, i32, [8 x ptr], ptr, i32, ptr, i32, i32, i32, i32, i32, i32, i32, i64, ptr, i32, ptr, ptr, i64, i64, i64, i64, ptr, %struct.AVChannelLayout, i64 }

; Function Attrs: alwaysinline nounwind willreturn memory(none) uwtable
define internal zeroext i8 @av_clip_uint8_c(i32 noundef %0) #7 {
  %2 = alloca i8, align 1
  %3 = alloca i32, align 4
  store i32 %0, ptr %3, align 4, !tbaa !41
  %4 = load i32, ptr %3, align 4, !tbaa !41
  %5 = and i32 %4, -256
  %6 = icmp ne i32 %5, 0
  br i1 %6, label %7, label %12

7:                                                ; preds = %1
  %8 = load i32, ptr %3, align 4, !tbaa !41
  %9 = xor i32 %8, -1
  %10 = ashr i32 %9, 31
  %11 = trunc i32 %10 to i8
  store i8 %11, ptr %2, align 1
  br label %15

12:                                               ; preds = %1
  %13 = load i32, ptr %3, align 4, !tbaa !41
  %14 = trunc i32 %13 to i8
  store i8 %14, ptr %2, align 1
  br label %15

15:                                               ; preds = %12, %7
  %16 = load i8, ptr %2, align 1
  ret i8 %16
}

; Function Attrs: nounwind uwtable
define internal i32 @colorcorrect_slice8(ptr noundef %0, ptr noundef %1, i32 noundef %2, i32 noundef %3) #2 {
  %5 = alloca ptr, align 8
  %6 = alloca ptr, align 8
  %7 = alloca i32, align 4
  %8 = alloca i32, align 4
  %9 = alloca ptr, align 8
  %10 = alloca ptr, align 8
  %11 = alloca float, align 4
  %12 = alloca float, align 4
  %13 = alloca i32, align 4
  %14 = alloca i32, align 4
  %15 = alloca i32, align 4
  %16 = alloca i32, align 4
  %17 = alloca i32, align 4
  %18 = alloca i32, align 4
  %19 = alloca i64, align 8
  %20 = alloca i64, align 8
  %21 = alloca i64, align 8
  %22 = alloca ptr, align 8
  %23 = alloca ptr, align 8
  %24 = alloca ptr, align 8
  %25 = alloca float, align 4
  %26 = alloca float, align 4
  %27 = alloca float, align 4
  %28 = alloca float, align 4
  %29 = alloca float, align 4
  %30 = alloca i32, align 4
  %31 = alloca i32, align 4
  %32 = alloca i32, align 4
  %33 = alloca float, align 4
  %34 = alloca float, align 4
  %35 = alloca float, align 4
  %36 = alloca float, align 4
  %37 = alloca float, align 4
  store ptr %0, ptr %5, align 8, !tbaa !4
  store ptr %1, ptr %6, align 8, !tbaa !71
  store i32 %2, ptr %7, align 4, !tbaa !41
  store i32 %3, ptr %8, align 4, !tbaa !41
  call void @llvm.lifetime.start.p0(i64 8, ptr %9) #9
  %38 = load ptr, ptr %5, align 8, !tbaa !4
  %39 = getelementptr inbounds nuw %struct.AVFilterContext, ptr %38, i32 0, i32 9
  %40 = load ptr, ptr %39, align 8, !tbaa !9
  store ptr %40, ptr %9, align 8, !tbaa !22
  call void @llvm.lifetime.start.p0(i64 8, ptr %10) #9
  %41 = load ptr, ptr %6, align 8, !tbaa !71
  store ptr %41, ptr %10, align 8, !tbaa !26
  call void @llvm.lifetime.start.p0(i64 4, ptr %11) #9
  %42 = load ptr, ptr %9, align 8, !tbaa !22
  %43 = getelementptr inbounds nuw %struct.ColorCorrectContext, ptr %42, i32 0, i32 8
  %44 = load float, ptr %43, align 4, !tbaa !59
  store float %44, ptr %11, align 4, !tbaa !42
  call void @llvm.lifetime.start.p0(i64 4, ptr %12) #9
  %45 = load ptr, ptr %9, align 8, !tbaa !22
  %46 = getelementptr inbounds nuw %struct.ColorCorrectContext, ptr %45, i32 0, i32 9
  %47 = load float, ptr %46, align 8, !tbaa !60
  store float %47, ptr %12, align 4, !tbaa !42
  call void @llvm.lifetime.start.p0(i64 4, ptr %13) #9
  %48 = load ptr, ptr %9, align 8, !tbaa !22
  %49 = getelementptr inbounds nuw %struct.ColorCorrectContext, ptr %48, i32 0, i32 10
  %50 = load i32, ptr %49, align 4, !tbaa !67
  store i32 %50, ptr %13, align 4, !tbaa !41
  call void @llvm.lifetime.start.p0(i64 4, ptr %14) #9
  %51 = load ptr, ptr %9, align 8, !tbaa !22
  %52 = getelementptr inbounds nuw %struct.ColorCorrectContext, ptr %51, i32 0, i32 11
  %53 = load i32, ptr %52, align 8, !tbaa !69
  store i32 %53, ptr %14, align 4, !tbaa !41
  call void @llvm.lifetime.start.p0(i64 4, ptr %15) #9
  %54 = load ptr, ptr %9, align 8, !tbaa !22
  %55 = getelementptr inbounds nuw %struct.ColorCorrectContext, ptr %54, i32 0, i32 13
  %56 = getelementptr inbounds [4 x i32], ptr %55, i64 0, i64 1
  %57 = load i32, ptr %56, align 4, !tbaa !41
  store i32 %57, ptr %15, align 4, !tbaa !41
  call void @llvm.lifetime.start.p0(i64 4, ptr %16) #9
  %58 = load ptr, ptr %9, align 8, !tbaa !22
  %59 = getelementptr inbounds nuw %struct.ColorCorrectContext, ptr %58, i32 0, i32 12
  %60 = getelementptr inbounds [4 x i32], ptr %59, i64 0, i64 1
  %61 = load i32, ptr %60, align 4, !tbaa !41
  store i32 %61, ptr %16, align 4, !tbaa !41
  call void @llvm.lifetime.start.p0(i64 4, ptr %17) #9
  %62 = load i32, ptr %16, align 4, !tbaa !41
  %63 = load i32, ptr %7, align 4, !tbaa !41
  %64 = mul nsw i32 %62, %63
  %65 = load i32, ptr %8, align 4, !tbaa !41
  %66 = sdiv i32 %64, %65
  store i32 %66, ptr %17, align 4, !tbaa !41
  call void @llvm.lifetime.start.p0(i64 4, ptr %18) #9
  %67 = load i32, ptr %16, align 4, !tbaa !41
  %68 = load i32, ptr %7, align 4, !tbaa !41
  %69 = add nsw i32 %68, 1
  %70 = mul nsw i32 %67, %69
  %71 = load i32, ptr %8, align 4, !tbaa !41
  %72 = sdiv i32 %70, %71
  store i32 %72, ptr %18, align 4, !tbaa !41
  call void @llvm.lifetime.start.p0(i64 8, ptr %19) #9
  %73 = load ptr, ptr %10, align 8, !tbaa !26
  %74 = getelementptr inbounds nuw %struct.AVFrame, ptr %73, i32 0, i32 1
  %75 = getelementptr inbounds [8 x i32], ptr %74, i64 0, i64 0
  %76 = load i32, ptr %75, align 8, !tbaa !41
  %77 = sext i32 %76 to i64
  store i64 %77, ptr %19, align 8, !tbaa !72
  call void @llvm.lifetime.start.p0(i64 8, ptr %20) #9
  %78 = load ptr, ptr %10, align 8, !tbaa !26
  %79 = getelementptr inbounds nuw %struct.AVFrame, ptr %78, i32 0, i32 1
  %80 = getelementptr inbounds [8 x i32], ptr %79, i64 0, i64 1
  %81 = load i32, ptr %80, align 4, !tbaa !41
  %82 = sext i32 %81 to i64
  store i64 %82, ptr %20, align 8, !tbaa !72
  call void @llvm.lifetime.start.p0(i64 8, ptr %21) #9
  %83 = load ptr, ptr %10, align 8, !tbaa !26
  %84 = getelementptr inbounds nuw %struct.AVFrame, ptr %83, i32 0, i32 1
  %85 = getelementptr inbounds [8 x i32], ptr %84, i64 0, i64 2
  %86 = load i32, ptr %85, align 8, !tbaa !41
  %87 = sext i32 %86 to i64
  store i64 %87, ptr %21, align 8, !tbaa !72
  call void @llvm.lifetime.start.p0(i64 8, ptr %22) #9
  %88 = load ptr, ptr %10, align 8, !tbaa !26
  %89 = getelementptr inbounds nuw %struct.AVFrame, ptr %88, i32 0, i32 0
  %90 = getelementptr inbounds [8 x ptr], ptr %89, i64 0, i64 0
  %91 = load ptr, ptr %90, align 8, !tbaa !73
  %92 = load i32, ptr %17, align 4, !tbaa !41
  %93 = load i32, ptr %14, align 4, !tbaa !41
  %94 = mul nsw i32 %92, %93
  %95 = sext i32 %94 to i64
  %96 = load i64, ptr %19, align 8, !tbaa !72
  %97 = mul nsw i64 %95, %96
  %98 = getelementptr inbounds i8, ptr %91, i64 %97
  store ptr %98, ptr %22, align 8, !tbaa !73
  call void @llvm.lifetime.start.p0(i64 8, ptr %23) #9
  %99 = load ptr, ptr %10, align 8, !tbaa !26
  %100 = getelementptr inbounds nuw %struct.AVFrame, ptr %99, i32 0, i32 0
  %101 = getelementptr inbounds [8 x ptr], ptr %100, i64 0, i64 1
  %102 = load ptr, ptr %101, align 8, !tbaa !73
  %103 = load i32, ptr %17, align 4, !tbaa !41
  %104 = sext i32 %103 to i64
  %105 = load i64, ptr %20, align 8, !tbaa !72
  %106 = mul nsw i64 %104, %105
  %107 = getelementptr inbounds i8, ptr %102, i64 %106
  store ptr %107, ptr %23, align 8, !tbaa !73
  call void @llvm.lifetime.start.p0(i64 8, ptr %24) #9
  %108 = load ptr, ptr %10, align 8, !tbaa !26
  %109 = getelementptr inbounds nuw %struct.AVFrame, ptr %108, i32 0, i32 0
  %110 = getelementptr inbounds [8 x ptr], ptr %109, i64 0, i64 2
  %111 = load ptr, ptr %110, align 8, !tbaa !73
  %112 = load i32, ptr %17, align 4, !tbaa !41
  %113 = sext i32 %112 to i64
  %114 = load i64, ptr %21, align 8, !tbaa !72
  %115 = mul nsw i64 %113, %114
  %116 = getelementptr inbounds i8, ptr %111, i64 %115
  store ptr %116, ptr %24, align 8, !tbaa !73
  call void @llvm.lifetime.start.p0(i64 4, ptr %25) #9
  %117 = load ptr, ptr %9, align 8, !tbaa !22
  %118 = getelementptr inbounds nuw %struct.ColorCorrectContext, ptr %117, i32 0, i32 5
  %119 = load float, ptr %118, align 8, !tbaa !74
  store float %119, ptr %25, align 4, !tbaa !42
  call void @llvm.lifetime.start.p0(i64 4, ptr %26) #9
  %120 = load ptr, ptr %9, align 8, !tbaa !22
  %121 = getelementptr inbounds nuw %struct.ColorCorrectContext, ptr %120, i32 0, i32 2
  %122 = load float, ptr %121, align 4, !tbaa !47
  store float %122, ptr %26, align 4, !tbaa !42
  call void @llvm.lifetime.start.p0(i64 4, ptr %27) #9
  %123 = load ptr, ptr %9, align 8, !tbaa !22
  %124 = getelementptr inbounds nuw %struct.ColorCorrectContext, ptr %123, i32 0, i32 1
  %125 = load float, ptr %124, align 8, !tbaa !48
  store float %125, ptr %27, align 4, !tbaa !42
  call void @llvm.lifetime.start.p0(i64 4, ptr %28) #9
  %126 = load ptr, ptr %9, align 8, !tbaa !22
  %127 = getelementptr inbounds nuw %struct.ColorCorrectContext, ptr %126, i32 0, i32 4
  %128 = load float, ptr %127, align 4, !tbaa !49
  %129 = load float, ptr %26, align 4, !tbaa !42
  %130 = fsub nsz float %128, %129
  store float %130, ptr %28, align 4, !tbaa !42
  call void @llvm.lifetime.start.p0(i64 4, ptr %29) #9
  %131 = load ptr, ptr %9, align 8, !tbaa !22
  %132 = getelementptr inbounds nuw %struct.ColorCorrectContext, ptr %131, i32 0, i32 3
  %133 = load float, ptr %132, align 8, !tbaa !50
  %134 = load float, ptr %27, align 4, !tbaa !42
  %135 = fsub nsz float %133, %134
  store float %135, ptr %29, align 4, !tbaa !42
  call void @llvm.lifetime.start.p0(i64 4, ptr %30) #9
  %136 = load i32, ptr %17, align 4, !tbaa !41
  store i32 %136, ptr %30, align 4, !tbaa !41
  br label %137

137:                                              ; preds = %230, %4
  %138 = load i32, ptr %30, align 4, !tbaa !41
  %139 = load i32, ptr %18, align 4, !tbaa !41
  %140 = icmp slt i32 %138, %139
  br i1 %140, label %142, label %141

141:                                              ; preds = %137
  store i32 2, ptr %31, align 4
  call void @llvm.lifetime.end.p0(i64 4, ptr %30) #9
  br label %233

142:                                              ; preds = %137
  call void @llvm.lifetime.start.p0(i64 4, ptr %32) #9
  store i32 0, ptr %32, align 4, !tbaa !41
  br label %143

143:                                              ; preds = %214, %142
  %144 = load i32, ptr %32, align 4, !tbaa !41
  %145 = load i32, ptr %15, align 4, !tbaa !41
  %146 = icmp slt i32 %144, %145
  br i1 %146, label %148, label %147

147:                                              ; preds = %143
  store i32 5, ptr %31, align 4
  call void @llvm.lifetime.end.p0(i64 4, ptr %32) #9
  br label %217

148:                                              ; preds = %143
  call void @llvm.lifetime.start.p0(i64 4, ptr %33) #9
  %149 = load ptr, ptr %22, align 8, !tbaa !73
  %150 = load i32, ptr %32, align 4, !tbaa !41
  %151 = load i32, ptr %13, align 4, !tbaa !41
  %152 = mul nsw i32 %150, %151
  %153 = sext i32 %152 to i64
  %154 = getelementptr inbounds i8, ptr %149, i64 %153
  %155 = load i8, ptr %154, align 1, !tbaa !75
  %156 = zext i8 %155 to i32
  %157 = sitofp i32 %156 to float
  %158 = load float, ptr %12, align 4, !tbaa !42
  %159 = fmul nsz float %157, %158
  store float %159, ptr %33, align 4, !tbaa !42
  call void @llvm.lifetime.start.p0(i64 4, ptr %34) #9
  %160 = load ptr, ptr %23, align 8, !tbaa !73
  %161 = load i32, ptr %32, align 4, !tbaa !41
  %162 = sext i32 %161 to i64
  %163 = getelementptr inbounds i8, ptr %160, i64 %162
  %164 = load i8, ptr %163, align 1, !tbaa !75
  %165 = zext i8 %164 to i32
  %166 = sitofp i32 %165 to float
  %167 = load float, ptr %12, align 4, !tbaa !42
  %168 = call nsz float @llvm.fmuladd.f32(float %166, float %167, float -5.000000e-01)
  store float %168, ptr %34, align 4, !tbaa !42
  call void @llvm.lifetime.start.p0(i64 4, ptr %35) #9
  %169 = load ptr, ptr %24, align 8, !tbaa !73
  %170 = load i32, ptr %32, align 4, !tbaa !41
  %171 = sext i32 %170 to i64
  %172 = getelementptr inbounds i8, ptr %169, i64 %171
  %173 = load i8, ptr %172, align 1, !tbaa !75
  %174 = zext i8 %173 to i32
  %175 = sitofp i32 %174 to float
  %176 = load float, ptr %12, align 4, !tbaa !42
  %177 = call nsz float @llvm.fmuladd.f32(float %175, float %176, float -5.000000e-01)
  store float %177, ptr %35, align 4, !tbaa !42
  call void @llvm.lifetime.start.p0(i64 4, ptr %36) #9
  call void @llvm.lifetime.start.p0(i64 4, ptr %37) #9
  %178 = load float, ptr %25, align 4, !tbaa !42
  %179 = load float, ptr %34, align 4, !tbaa !42
  %180 = load float, ptr %33, align 4, !tbaa !42
  %181 = load float, ptr %28, align 4, !tbaa !42
  %182 = call nsz float @llvm.fmuladd.f32(float %180, float %181, float %179)
  %183 = load float, ptr %26, align 4, !tbaa !42
  %184 = fadd nsz float %182, %183
  %185 = fmul nsz float %178, %184
  store float %185, ptr %36, align 4, !tbaa !42
  %186 = load float, ptr %25, align 4, !tbaa !42
  %187 = load float, ptr %35, align 4, !tbaa !42
  %188 = load float, ptr %33, align 4, !tbaa !42
  %189 = load float, ptr %29, align 4, !tbaa !42
  %190 = call nsz float @llvm.fmuladd.f32(float %188, float %189, float %187)
  %191 = load float, ptr %27, align 4, !tbaa !42
  %192 = fadd nsz float %190, %191
  %193 = fmul nsz float %186, %192
  store float %193, ptr %37, align 4, !tbaa !42
  %194 = load float, ptr %36, align 4, !tbaa !42
  %195 = fadd nsz float %194, 5.000000e-01
  %196 = load float, ptr %11, align 4, !tbaa !42
  %197 = fmul nsz float %195, %196
  %198 = fptosi float %197 to i32
  %199 = call zeroext i8 @av_clip_uint8_c(i32 noundef %198) #11
  %200 = load ptr, ptr %23, align 8, !tbaa !73
  %201 = load i32, ptr %32, align 4, !tbaa !41
  %202 = sext i32 %201 to i64
  %203 = getelementptr inbounds i8, ptr %200, i64 %202
  store i8 %199, ptr %203, align 1, !tbaa !75
  %204 = load float, ptr %37, align 4, !tbaa !42
  %205 = fadd nsz float %204, 5.000000e-01
  %206 = load float, ptr %11, align 4, !tbaa !42
  %207 = fmul nsz float %205, %206
  %208 = fptosi float %207 to i32
  %209 = call zeroext i8 @av_clip_uint8_c(i32 noundef %208) #11
  %210 = load ptr, ptr %24, align 8, !tbaa !73
  %211 = load i32, ptr %32, align 4, !tbaa !41
  %212 = sext i32 %211 to i64
  %213 = getelementptr inbounds i8, ptr %210, i64 %212
  store i8 %209, ptr %213, align 1, !tbaa !75
  call void @llvm.lifetime.end.p0(i64 4, ptr %37) #9
  call void @llvm.lifetime.end.p0(i64 4, ptr %36) #9
  call void @llvm.lifetime.end.p0(i64 4, ptr %35) #9
  call void @llvm.lifetime.end.p0(i64 4, ptr %34) #9
  call void @llvm.lifetime.end.p0(i64 4, ptr %33) #9
  br label %214

214:                                              ; preds = %148
  %215 = load i32, ptr %32, align 4, !tbaa !41
  %216 = add nsw i32 %215, 1
  store i32 %216, ptr %32, align 4, !tbaa !41
  br label %143, !llvm.loop !76

217:                                              ; preds = %147
  %218 = load i64, ptr %19, align 8, !tbaa !72
  %219 = load i32, ptr %14, align 4, !tbaa !41
  %220 = sext i32 %219 to i64
  %221 = mul nsw i64 %218, %220
  %222 = load ptr, ptr %22, align 8, !tbaa !73
  %223 = getelementptr inbounds i8, ptr %222, i64 %221
  store ptr %223, ptr %22, align 8, !tbaa !73
  %224 = load i64, ptr %20, align 8, !tbaa !72
  %225 = load ptr, ptr %23, align 8, !tbaa !73
  %226 = getelementptr inbounds i8, ptr %225, i64 %224
  store ptr %226, ptr %23, align 8, !tbaa !73
  %227 = load i64, ptr %21, align 8, !tbaa !72
  %228 = load ptr, ptr %24, align 8, !tbaa !73
  %229 = getelementptr inbounds i8, ptr %228, i64 %227
  store ptr %229, ptr %24, align 8, !tbaa !73
  br label %230

230:                                              ; preds = %217
  %231 = load i32, ptr %30, align 4, !tbaa !41
  %232 = add nsw i32 %231, 1
  store i32 %232, ptr %30, align 4, !tbaa !41
  br label %137, !llvm.loop !77

233:                                              ; preds = %141
  store i32 1, ptr %31, align 4
  call void @llvm.lifetime.end.p0(i64 4, ptr %29) #9
  call void @llvm.lifetime.end.p0(i64 4, ptr %28) #9
  call void @llvm.lifetime.end.p0(i64 4, ptr %27) #9
  call void @llvm.lifetime.end.p0(i64 4, ptr %26) #9
  call void @llvm.lifetime.end.p0(i64 4, ptr %25) #9
  call void @llvm.lifetime.end.p0(i64 8, ptr %24) #9
  call void @llvm.lifetime.end.p0(i64 8, ptr %23) #9
  call void @llvm.lifetime.end.p0(i64 8, ptr %22) #9
  call void @llvm.lifetime.end.p0(i64 8, ptr %21) #9
  call void @llvm.lifetime.end.p0(i64 8, ptr %20) #9
  call void @llvm.lifetime.end.p0(i64 8, ptr %19) #9
  call void @llvm.lifetime.end.p0(i64 4, ptr %18) #9
  call void @llvm.lifetime.end.p0(i64 4, ptr %17) #9
  call void @llvm.lifetime.end.p0(i64 4, ptr %16) #9
  call void @llvm.lifetime.end.p0(i64 4, ptr %15) #9
  call void @llvm.lifetime.end.p0(i64 4, ptr %14) #9
  call void @llvm.lifetime.end.p0(i64 4, ptr %13) #9
  call void @llvm.lifetime.end.p0(i64 4, ptr %12) #9
  call void @llvm.lifetime.end.p0(i64 4, ptr %11) #9
  call void @llvm.lifetime.end.p0(i64 8, ptr %10) #9
  call void @llvm.lifetime.end.p0(i64 8, ptr %9) #9
  ret i32 0
}