; Function Attrs: nofree norecurse nosync nounwind memory(readwrite, inaccessiblemem: none) uwtable
define internal noundef i32 @colorcorrect_slice8(ptr noundef readonly captures(none) %0, ptr noundef readonly captures(none) %1, i32 noundef %2, i32 noundef %3) #4 {
  %5 = getelementptr inbounds nuw i8, ptr %0, i64 72
  %6 = load ptr, ptr %5, align 8, !tbaa !4
  %7 = getelementptr inbounds nuw i8, ptr %6, i64 36
  %8 = load float, ptr %7, align 4, !tbaa !52
  %9 = getelementptr inbounds nuw i8, ptr %6, i64 40
  %10 = load float, ptr %9, align 8, !tbaa !53
  %11 = getelementptr inbounds nuw i8, ptr %6, i64 44
  %12 = load i32, ptr %11, align 4, !tbaa !60
  %13 = getelementptr inbounds nuw i8, ptr %6, i64 72
  %14 = load i32, ptr %13, align 4, !tbaa !35
  %15 = getelementptr inbounds nuw i8, ptr %6, i64 56
  %16 = load i32, ptr %15, align 4, !tbaa !35
  %17 = mul nsw i32 %16, %2
  %18 = sdiv i32 %17, %3
  %19 = add nsw i32 %2, 1
  %20 = mul nsw i32 %16, %19
  %21 = sdiv i32 %20, %3
  %22 = getelementptr inbounds nuw i8, ptr %1, i64 68
  %23 = load i32, ptr %22, align 4, !tbaa !35
  %24 = sext i32 %23 to i64
  %25 = getelementptr inbounds nuw i8, ptr %1, i64 72
  %26 = load i32, ptr %25, align 8, !tbaa !35
  %27 = sext i32 %26 to i64
  %28 = getelementptr inbounds nuw i8, ptr %6, i64 24
  %29 = load float, ptr %28, align 8, !tbaa !64
  %30 = getelementptr inbounds nuw i8, ptr %6, i64 12
  %31 = load float, ptr %30, align 4, !tbaa !37
  %32 = getelementptr inbounds nuw i8, ptr %6, i64 8
  %33 = load float, ptr %32, align 8, !tbaa !38
  %34 = getelementptr inbounds nuw i8, ptr %6, i64 20
  %35 = load float, ptr %34, align 4, !tbaa !39
  %36 = fsub nsz float %35, %31
  %37 = getelementptr inbounds nuw i8, ptr %6, i64 16
  %38 = load float, ptr %37, align 8, !tbaa !40
  %39 = fsub nsz float %38, %33
  %40 = icmp slt i32 %18, %21
  br i1 %40, label %.preheader.lr.ph, label %._crit_edge87

.preheader.lr.ph:                                 ; preds = %4
  %41 = getelementptr inbounds nuw i8, ptr %1, i64 64
  %42 = load i32, ptr %41, align 8, !tbaa !35
  %43 = sext i32 %42 to i64
  %44 = getelementptr inbounds nuw i8, ptr %6, i64 48
  %45 = load i32, ptr %44, align 8, !tbaa !62
  %46 = icmp sgt i32 %14, 0
  %47 = sext i32 %45 to i64
  %48 = mul nsw i64 %43, %47
  br i1 %46, label %.preheader.us.preheader, label %._crit_edge87

.preheader.us.preheader:                          ; preds = %.preheader.lr.ph
  %49 = load ptr, ptr %1, align 8, !tbaa !65
  %50 = mul nsw i32 %18, %45
  %51 = sext i32 %50 to i64
  %52 = mul nsw i64 %43, %51
  %53 = getelementptr inbounds i8, ptr %49, i64 %52
  %54 = getelementptr inbounds nuw i8, ptr %1, i64 8
  %55 = load ptr, ptr %54, align 8, !tbaa !65
  %56 = sext i32 %18 to i64
  %57 = mul nsw i64 %24, %56
  %58 = getelementptr inbounds i8, ptr %55, i64 %57
  %59 = getelementptr inbounds nuw i8, ptr %1, i64 16
  %60 = load ptr, ptr %59, align 8, !tbaa !65
  %61 = mul nsw i64 %27, %56
  %62 = getelementptr inbounds i8, ptr %60, i64 %61
  %63 = sext i32 %12 to i64
  %wide.trip.count = zext nneg i32 %14 to i64
  br label %.preheader.us

.preheader.us:                                    ; preds = %.preheader.us.preheader, %._crit_edge.us
  %.086.us = phi ptr [ %94, %._crit_edge.us ], [ %53, %.preheader.us.preheader ]
  %.07585.us = phi ptr [ %95, %._crit_edge.us ], [ %58, %.preheader.us.preheader ]
  %.07684.us = phi ptr [ %96, %._crit_edge.us ], [ %62, %.preheader.us.preheader ]
  %.07783.us = phi i32 [ %97, %._crit_edge.us ], [ %18, %.preheader.us.preheader ]
  br label %64

64:                                               ; preds = %.preheader.us, %64
  %indvars.iv = phi i64 [ 0, %.preheader.us ], [ %indvars.iv.next, %64 ]
  %65 = mul nsw i64 %indvars.iv, %63
  %66 = getelementptr inbounds i8, ptr %.086.us, i64 %65
  %67 = load i8, ptr %66, align 1, !tbaa !66
  %68 = uitofp i8 %67 to float
  %69 = fmul nsz float %10, %68
  %70 = getelementptr inbounds nuw i8, ptr %.07585.us, i64 %indvars.iv
  %71 = load i8, ptr %70, align 1, !tbaa !66
  %72 = uitofp i8 %71 to float
  %73 = tail call nsz float @llvm.fmuladd.f32(float %72, float %10, float -5.000000e-01)
  %74 = getelementptr inbounds nuw i8, ptr %.07684.us, i64 %indvars.iv
  %75 = load i8, ptr %74, align 1, !tbaa !66
  %76 = uitofp i8 %75 to float
  %77 = tail call nsz float @llvm.fmuladd.f32(float %76, float %10, float -5.000000e-01)
  %78 = tail call nsz float @llvm.fmuladd.f32(float %69, float %36, float %73)
  %79 = fadd nsz float %31, %78
  %80 = fmul nsz float %29, %79
  %81 = tail call nsz float @llvm.fmuladd.f32(float %69, float %39, float %77)
  %82 = fadd nsz float %33, %81
  %83 = fmul nsz float %29, %82
  %84 = fadd nsz float %80, 5.000000e-01
  %85 = fmul nsz float %8, %84
  %86 = fptosi float %85 to i32
  %.not.i.us = icmp ult i32 %86, 256
  %isnotneg.i.us = icmp sgt i32 %86, -1
  %87 = sext i1 %isnotneg.i.us to i8
  %88 = trunc nuw i32 %86 to i8
  %.0.i.us = select i1 %.not.i.us, i8 %88, i8 %87
  store i8 %.0.i.us, ptr %70, align 1, !tbaa !66
  %89 = fadd nsz float %83, 5.000000e-01
  %90 = fmul nsz float %8, %89
  %91 = fptosi float %90 to i32
  %.not.i79.us = icmp ult i32 %91, 256
  %isnotneg.i80.us = icmp sgt i32 %91, -1
  %92 = sext i1 %isnotneg.i80.us to i8
  %93 = trunc nuw i32 %91 to i8
  %.0.i81.us = select i1 %.not.i79.us, i8 %93, i8 %92
  store i8 %.0.i81.us, ptr %74, align 1, !tbaa !66
  %indvars.iv.next = add nuw nsw i64 %indvars.iv, 1
  %exitcond.not = icmp eq i64 %indvars.iv.next, %wide.trip.count
  br i1 %exitcond.not, label %._crit_edge.us, label %64, !llvm.loop !67

._crit_edge.us:                                   ; preds = %64
  %94 = getelementptr inbounds i8, ptr %.086.us, i64 %48
  %95 = getelementptr inbounds i8, ptr %.07585.us, i64 %24
  %96 = getelementptr inbounds i8, ptr %.07684.us, i64 %27
  %97 = add nsw i32 %.07783.us, 1
  %exitcond90.not = icmp eq i32 %97, %21
  br i1 %exitcond90.not, label %._crit_edge87, label %.preheader.us, !llvm.loop !68

._crit_edge87:                                    ; preds = %._crit_edge.us, %.preheader.lr.ph, %4
  ret i32 0
}